
Discarded input sections

 .text          0x00000000        0x0 ..\obj\stm32f4xx_syscfg.o
 .data          0x00000000        0x0 ..\obj\stm32f4xx_syscfg.o
 .bss           0x00000000        0x0 ..\obj\stm32f4xx_syscfg.o
 .text.SYSCFG_DeInit
                0x00000000       0x20 ..\obj\stm32f4xx_syscfg.o
 .text.SYSCFG_MemoryRemapConfig
                0x00000000       0x20 ..\obj\stm32f4xx_syscfg.o
 .text.SYSCFG_ETH_MediaInterfaceConfig
                0x00000000       0x20 ..\obj\stm32f4xx_syscfg.o
 .text.SYSCFG_CompensationCellCmd
                0x00000000       0x20 ..\obj\stm32f4xx_syscfg.o
 .text.SYSCFG_GetCompensationCellStatus
                0x00000000       0x3c ..\obj\stm32f4xx_syscfg.o
 .text          0x00000000        0x0 ..\obj\startup_stm32f4xx.o
 .data          0x00000000        0x0 ..\obj\startup_stm32f4xx.o
 .bss           0x00000000        0x0 ..\obj\startup_stm32f4xx.o
 .text          0x00000000        0x0 ..\obj\stm32_ub_led.o
 .bss           0x00000000        0x0 ..\obj\stm32_ub_led.o
 .text.UB_Led_Toggle
                0x00000000       0x78 ..\obj\stm32_ub_led.o
 .text.UB_Led_Switch
                0x00000000       0x30 ..\obj\stm32_ub_led.o
 .text          0x00000000        0x0 ..\obj\main.o
 .data          0x00000000        0x0 ..\obj\main.o
 .bss           0x00000000        0x0 ..\obj\main.o
 .text          0x00000000        0x0 ..\obj\stm32f4xx_rcc.o
 .data          0x00000000       0x10 ..\obj\stm32f4xx_rcc.o
 .bss           0x00000000        0x0 ..\obj\stm32f4xx_rcc.o
 .text.RCC_DeInit
                0x00000000       0x84 ..\obj\stm32f4xx_rcc.o
 .text.RCC_HSEConfig
                0x00000000       0x30 ..\obj\stm32f4xx_rcc.o
 .text.RCC_WaitForHSEStartUp
                0x00000000       0x64 ..\obj\stm32f4xx_rcc.o
 .text.RCC_AdjustHSICalibrationValue
                0x00000000       0x48 ..\obj\stm32f4xx_rcc.o
 .text.RCC_HSICmd
                0x00000000       0x20 ..\obj\stm32f4xx_rcc.o
 .text.RCC_LSEConfig
                0x00000000       0x60 ..\obj\stm32f4xx_rcc.o
 .text.RCC_LSICmd
                0x00000000       0x20 ..\obj\stm32f4xx_rcc.o
 .text.RCC_PLLConfig
                0x00000000       0x48 ..\obj\stm32f4xx_rcc.o
 .text.RCC_PLLCmd
                0x00000000       0x20 ..\obj\stm32f4xx_rcc.o
 .text.RCC_PLLI2SConfig
                0x00000000       0x30 ..\obj\stm32f4xx_rcc.o
 .text.RCC_PLLI2SCmd
                0x00000000       0x20 ..\obj\stm32f4xx_rcc.o
 .text.RCC_ClockSecuritySystemCmd
                0x00000000       0x20 ..\obj\stm32f4xx_rcc.o
 .text.RCC_MCO1Config
                0x00000000       0x48 ..\obj\stm32f4xx_rcc.o
 .text.RCC_MCO2Config
                0x00000000       0x48 ..\obj\stm32f4xx_rcc.o
 .text.RCC_SYSCLKConfig
                0x00000000       0x40 ..\obj\stm32f4xx_rcc.o
 .text.RCC_GetSYSCLKSource
                0x00000000       0x20 ..\obj\stm32f4xx_rcc.o
 .text.RCC_HCLKConfig
                0x00000000       0x40 ..\obj\stm32f4xx_rcc.o
 .text.RCC_PCLK1Config
                0x00000000       0x40 ..\obj\stm32f4xx_rcc.o
 .text.RCC_PCLK2Config
                0x00000000       0x44 ..\obj\stm32f4xx_rcc.o
 .text.RCC_GetClocksFreq
                0x00000000      0x1d0 ..\obj\stm32f4xx_rcc.o
 .text.RCC_RTCCLKConfig
                0x00000000       0x78 ..\obj\stm32f4xx_rcc.o
 .text.RCC_RTCCLKCmd
                0x00000000       0x20 ..\obj\stm32f4xx_rcc.o
 .text.RCC_BackupResetCmd
                0x00000000       0x20 ..\obj\stm32f4xx_rcc.o
 .text.RCC_I2SCLKConfig
                0x00000000       0x20 ..\obj\stm32f4xx_rcc.o
 .text.RCC_AHB2PeriphClockCmd
                0x00000000       0x58 ..\obj\stm32f4xx_rcc.o
 .text.RCC_AHB3PeriphClockCmd
                0x00000000       0x58 ..\obj\stm32f4xx_rcc.o
 .text.RCC_APB1PeriphClockCmd
                0x00000000       0x58 ..\obj\stm32f4xx_rcc.o
 .text.RCC_AHB1PeriphResetCmd
                0x00000000       0x58 ..\obj\stm32f4xx_rcc.o
 .text.RCC_AHB2PeriphResetCmd
                0x00000000       0x58 ..\obj\stm32f4xx_rcc.o
 .text.RCC_AHB3PeriphResetCmd
                0x00000000       0x58 ..\obj\stm32f4xx_rcc.o
 .text.RCC_APB1PeriphResetCmd
                0x00000000       0x58 ..\obj\stm32f4xx_rcc.o
 .text.RCC_APB2PeriphResetCmd
                0x00000000       0x58 ..\obj\stm32f4xx_rcc.o
 .text.RCC_AHB1PeriphClockLPModeCmd
                0x00000000       0x58 ..\obj\stm32f4xx_rcc.o
 .text.RCC_AHB2PeriphClockLPModeCmd
                0x00000000       0x58 ..\obj\stm32f4xx_rcc.o
 .text.RCC_AHB3PeriphClockLPModeCmd
                0x00000000       0x58 ..\obj\stm32f4xx_rcc.o
 .text.RCC_APB1PeriphClockLPModeCmd
                0x00000000       0x58 ..\obj\stm32f4xx_rcc.o
 .text.RCC_APB2PeriphClockLPModeCmd
                0x00000000       0x58 ..\obj\stm32f4xx_rcc.o
 .text.RCC_ITConfig
                0x00000000       0x60 ..\obj\stm32f4xx_rcc.o
 .text.RCC_GetFlagStatus
                0x00000000       0x90 ..\obj\stm32f4xx_rcc.o
 .text.RCC_ClearFlag
                0x00000000       0x24 ..\obj\stm32f4xx_rcc.o
 .text.RCC_GetITStatus
                0x00000000       0x40 ..\obj\stm32f4xx_rcc.o
 .text.RCC_ClearITPendingBit
                0x00000000       0x20 ..\obj\stm32f4xx_rcc.o
 .text          0x00000000        0x0 ..\obj\stm32_ub_ext_int0.o
 .bss           0x00000000        0x0 ..\obj\stm32_ub_ext_int0.o
 .text          0x00000000        0x0 ..\obj\stm32f4xx_gpio.o
 .data          0x00000000        0x0 ..\obj\stm32f4xx_gpio.o
 .bss           0x00000000        0x0 ..\obj\stm32f4xx_gpio.o
 .text.GPIO_DeInit
                0x00000000      0x178 ..\obj\stm32f4xx_gpio.o
 .text.GPIO_StructInit
                0x00000000       0x3c ..\obj\stm32f4xx_gpio.o
 .text.GPIO_PinLockConfig
                0x00000000       0x44 ..\obj\stm32f4xx_gpio.o
 .text.GPIO_ReadInputData
                0x00000000       0x1c ..\obj\stm32f4xx_gpio.o
 .text.GPIO_ReadOutputDataBit
                0x00000000       0x3c ..\obj\stm32f4xx_gpio.o
 .text.GPIO_ReadOutputData
                0x00000000       0x1c ..\obj\stm32f4xx_gpio.o
 .text.GPIO_SetBits
                0x00000000       0x1c ..\obj\stm32f4xx_gpio.o
 .text.GPIO_ResetBits
                0x00000000       0x1c ..\obj\stm32f4xx_gpio.o
 .text.GPIO_WriteBit
                0x00000000       0x30 ..\obj\stm32f4xx_gpio.o
 .text.GPIO_Write
                0x00000000       0x1c ..\obj\stm32f4xx_gpio.o
 .text.GPIO_ToggleBits
                0x00000000       0x24 ..\obj\stm32f4xx_gpio.o
 .text.GPIO_PinAFConfig
                0x00000000       0xac ..\obj\stm32f4xx_gpio.o
 .text          0x00000000        0x0 ..\obj\system_stm32f4xx.o
 .data          0x00000000       0x14 ..\obj\system_stm32f4xx.o
 .bss           0x00000000        0x0 ..\obj\system_stm32f4xx.o
 .text.SystemCoreClockUpdate
                0x00000000      0x174 ..\obj\system_stm32f4xx.o
 .text          0x00000000        0x0 ..\obj\stm32f4xx_exti.o
 .data          0x00000000        0x0 ..\obj\stm32f4xx_exti.o
 .bss           0x00000000        0x0 ..\obj\stm32f4xx_exti.o
 .text.EXTI_DeInit
                0x00000000       0x54 ..\obj\stm32f4xx_exti.o
 .text.EXTI_StructInit
                0x00000000       0x34 ..\obj\stm32f4xx_exti.o
 .text.EXTI_GenerateSWInterrupt
                0x00000000       0x2c ..\obj\stm32f4xx_exti.o
 .text.EXTI_GetFlagStatus
                0x00000000       0x40 ..\obj\stm32f4xx_exti.o
 .text.EXTI_ClearFlag
                0x00000000       0x20 ..\obj\stm32f4xx_exti.o
 .text          0x00000000        0x0 ..\obj\misc.o
 .data          0x00000000        0x0 ..\obj\misc.o
 .bss           0x00000000        0x0 ..\obj\misc.o
 .text.NVIC_PriorityGroupConfig
                0x00000000       0x28 ..\obj\misc.o
 .text.NVIC_SetVectorTable
                0x00000000       0x2c ..\obj\misc.o
 .text.NVIC_SystemLPConfig
                0x00000000       0x58 ..\obj\misc.o
 .text.SysTick_CLKSourceConfig
                0x00000000       0x4c ..\obj\misc.o

Memory Configuration

Name             Origin             Length             Attributes
rom              0x08000000         0x00100000         xr
ram              0x20000000         0x00020000         xrw
ram1             0x10000000         0x00010000         xrw
*default*        0x00000000         0xffffffff

Linker script and memory map

                0x20020000                _eram = 0x20020000

.text           0x08000000      0xc7c
 *(.isr_vector)
 .isr_vector    0x08000000      0x188 ..\obj\startup_stm32f4xx.o
                0x08000000                g_pfnVectors
 *(.text*)
 .text.SYSCFG_EXTILineConfig
                0x08000188       0xb4 ..\obj\stm32f4xx_syscfg.o
                0x08000188                SYSCFG_EXTILineConfig
 .text.Default_Reset_Handler
                0x0800023c       0x68 ..\obj\startup_stm32f4xx.o
                0x0800023c                Default_Reset_Handler
                0x0800023c                Reset_Handler
 .text.Default_Handler
                0x080002a4        0x8 ..\obj\startup_stm32f4xx.o
                0x080002a4                RTC_Alarm_IRQHandler
                0x080002a4                HASH_RNG_IRQHandler
                0x080002a4                EXTI2_IRQHandler
                0x080002a4                TIM8_CC_IRQHandler
                0x080002a4                DebugMon_Handler
                0x080002a4                TIM1_CC_IRQHandler
                0x080002a4                DMA2_Stream5_IRQHandler
                0x080002a4                HardFault_Handler
                0x080002a4                DMA1_Stream5_IRQHandler
                0x080002a4                SysTick_Handler
                0x080002a4                PVD_IRQHandler
                0x080002a4                SDIO_IRQHandler
                0x080002a4                TAMP_STAMP_IRQHandler
                0x080002a4                PendSV_Handler
                0x080002a4                NMI_Handler
                0x080002a4                CAN2_RX1_IRQHandler
                0x080002a4                EXTI3_IRQHandler
                0x080002a4                TIM8_TRG_COM_TIM14_IRQHandler
                0x080002a4                TIM1_UP_TIM10_IRQHandler
                0x080002a4                TIM8_UP_TIM13_IRQHandler
                0x080002a4                I2C3_ER_IRQHandler
                0x080002a4                I2C2_EV_IRQHandler
                0x080002a4                DMA1_Stream2_IRQHandler
                0x080002a4                CAN1_RX0_IRQHandler
                0x080002a4                FPU_IRQHandler
                0x080002a4                OTG_HS_WKUP_IRQHandler
                0x080002a4                UsageFault_Handler
                0x080002a4                CAN2_SCE_IRQHandler
                0x080002a4                DMA2_Stream2_IRQHandler
                0x080002a4                SPI1_IRQHandler
                0x080002a4                TIM6_DAC_IRQHandler
                0x080002a4                TIM1_BRK_TIM9_IRQHandler
                0x080002a4                DCMI_IRQHandler
                0x080002a4                CAN2_RX0_IRQHandler
                0x080002a4                DMA2_Stream3_IRQHandler
                0x080002a4                USART6_IRQHandler
                0x080002a4                USART3_IRQHandler
                0x080002a4                CRYP_IRQHandler
                0x080002a4                CAN1_RX1_IRQHandler
                0x080002a4                UART5_IRQHandler
                0x080002a4                DMA2_Stream0_IRQHandler
                0x080002a4                TIM4_IRQHandler
                0x080002a4                I2C1_EV_IRQHandler
                0x080002a4                DMA1_Stream6_IRQHandler
                0x080002a4                DMA1_Stream1_IRQHandler
                0x080002a4                UART4_IRQHandler
                0x080002a4                TIM3_IRQHandler
                0x080002a4                RCC_IRQHandler
                0x080002a4                TIM8_BRK_TIM12_IRQHandler
                0x080002a4                EXTI15_10_IRQHandler
                0x080002a4                ADC_IRQHandler
                0x080002a4                DMA1_Stream7_IRQHandler
                0x080002a4                TIM7_IRQHandler
                0x080002a4                CAN2_TX_IRQHandler
                0x080002a4                TIM5_IRQHandler
                0x080002a4                DMA2_Stream7_IRQHandler
                0x080002a4                I2C3_EV_IRQHandler
                0x080002a4                EXTI9_5_IRQHandler
                0x080002a4                RTC_WKUP_IRQHandler
                0x080002a4                ETH_WKUP_IRQHandler
                0x080002a4                SPI2_IRQHandler
                0x080002a4                OTG_HS_EP1_IN_IRQHandler
                0x080002a4                MemManage_Handler
                0x080002a4                DMA1_Stream0_IRQHandler
                0x080002a4                CAN1_TX_IRQHandler
                0x080002a4                SVC_Handler
                0x080002a4                EXTI4_IRQHandler
                0x080002a4                FSMC_IRQHandler
                0x080002a4                ETH_IRQHandler
                0x080002a4                OTG_HS_EP1_OUT_IRQHandler
                0x080002a4                WWDG_IRQHandler
                0x080002a4                TIM2_IRQHandler
                0x080002a4                OTG_FS_WKUP_IRQHandler
                0x080002a4                TIM1_TRG_COM_TIM11_IRQHandler
                0x080002a4                OTG_HS_IRQHandler
                0x080002a4                EXTI1_IRQHandler
                0x080002a4                USART2_IRQHandler
                0x080002a4                I2C2_ER_IRQHandler
                0x080002a4                DMA2_Stream1_IRQHandler
                0x080002a4                CAN1_SCE_IRQHandler
                0x080002a4                FLASH_IRQHandler
                0x080002a4                DMA2_Stream4_IRQHandler
                0x080002a4                BusFault_Handler
                0x080002a4                USART1_IRQHandler
                0x080002a4                OTG_FS_IRQHandler
                0x080002a4                SPI3_IRQHandler
                0x080002a4                DMA1_Stream4_IRQHandler
                0x080002a4                I2C1_ER_IRQHandler
                0x080002a4                DMA2_Stream6_IRQHandler
                0x080002a4                DMA1_Stream3_IRQHandler
 .text.UB_Led_Init
                0x080002ac       0xe4 ..\obj\stm32_ub_led.o
                0x080002ac                UB_Led_Init
 .text.UB_Led_Off
                0x08000390       0x54 ..\obj\stm32_ub_led.o
                0x08000390                UB_Led_Off
 .text.UB_Led_On
                0x080003e4       0x54 ..\obj\stm32_ub_led.o
                0x080003e4                UB_Led_On
 .text.main     0x08000438       0x14 ..\obj\main.o
                0x08000438                main
 .text.RCC_AHB1PeriphClockCmd
                0x0800044c       0x58 ..\obj\stm32f4xx_rcc.o
                0x0800044c                RCC_AHB1PeriphClockCmd
 .text.RCC_APB2PeriphClockCmd
                0x080004a4       0x58 ..\obj\stm32f4xx_rcc.o
                0x080004a4                RCC_APB2PeriphClockCmd
 .text.UB_Ext_INT0_Init
                0x080004fc       0xc0 ..\obj\stm32_ub_ext_int0.o
                0x080004fc                UB_Ext_INT0_Init
 .text.P_EXT_INT0_LoFlanke
                0x080005bc        0xc ..\obj\stm32_ub_ext_int0.o
                0x080005bc                P_EXT_INT0_LoFlanke
 .text.P_EXT_INT0_HiFlanke
                0x080005c8       0x10 ..\obj\stm32_ub_ext_int0.o
                0x080005c8                P_EXT_INT0_HiFlanke
 .text.EXTI0_IRQHandler
                0x080005d8       0x54 ..\obj\stm32_ub_ext_int0.o
                0x080005d8                EXTI0_IRQHandler
 .text.GPIO_Init
                0x0800062c      0x154 ..\obj\stm32f4xx_gpio.o
                0x0800062c                GPIO_Init
 .text.GPIO_ReadInputDataBit
                0x08000780       0x3c ..\obj\stm32f4xx_gpio.o
                0x08000780                GPIO_ReadInputDataBit
 .text.SystemInit
                0x080007bc       0x94 ..\obj\system_stm32f4xx.o
                0x080007bc                SystemInit
 .text.SetSysClock
                0x08000850      0x188 ..\obj\system_stm32f4xx.o
 .text.EXTI_Init
                0x080009d8      0x144 ..\obj\stm32f4xx_exti.o
                0x080009d8                EXTI_Init
 .text.EXTI_GetITStatus
                0x08000b1c       0x5c ..\obj\stm32f4xx_exti.o
                0x08000b1c                EXTI_GetITStatus
 .text.EXTI_ClearITPendingBit
                0x08000b78       0x20 ..\obj\stm32f4xx_exti.o
                0x08000b78                EXTI_ClearITPendingBit
 .text.NVIC_Init
                0x08000b98       0xe4 ..\obj\misc.o
                0x08000b98                NVIC_Init
 *(.init)
 *(.fini)
 *crtbegin.o(.ctors)
 *crtbegin?.o(.ctors)
 *(EXCLUDE_FILE(*crtend.o *crtend?.o) .ctors)
 *(SORT(.ctors.*))
 *(.ctors)
 *crtbegin.o(.dtors)
 *crtbegin?.o(.dtors)
 *(EXCLUDE_FILE(*crtend.o *crtend?.o) .dtors)
 *(SORT(.dtors.*))
 *(.dtors)
 *(.rodata*)
 *(.eh_fram e*)

.glue_7         0x08000c7c        0x0
 .glue_7        0x00000000        0x0 linker stubs

.glue_7t        0x08000c7c        0x0
 .glue_7t       0x00000000        0x0 linker stubs

.vfp11_veneer   0x08000c7c        0x0
 .vfp11_veneer  0x00000000        0x0 linker stubs

.v4_bx          0x08000c7c        0x0
 .v4_bx         0x00000000        0x0 linker stubs

.ARM.extab
 *(.ARM.extab* .gnu.linkonce.armextab.*)
                0x08000c7c                __exidx_start = .

.ARM.exidx
 *(.ARM.exidx* .gnu.linkonce.armexidx.*)
                0x08000c7c                __exidx_end = .
                0x08000c7c                __etext = .
                0x08000c7c                _sidata = __etext

.data           0x20000000       0x60 load address 0x08000c7c
                0x20000000                __data_start__ = .
                0x20000000                _sdata = __data_start__
 *(vtable)
 *(.data*)
 .data          0x20000000       0x50 ..\obj\stm32_ub_led.o
                0x20000000                LED
 .data          0x20000050       0x10 ..\obj\stm32_ub_ext_int0.o
                0x20000050                EXT_INT0
                0x20000060                . = ALIGN (0x4)
                0x20000060                PROVIDE (__preinit_array_start, .)
 *(.preinit_array)
                0x20000060                PROVIDE (__preinit_array_end, .)
                0x20000060                . = ALIGN (0x4)
                0x20000060                PROVIDE (__init_array_start, .)
 *(SORT(.init_array.*))
 *(.init_array)
                0x20000060                PROVIDE (__init_array_end, .)
                0x20000060                . = ALIGN (0x4)
                0x20000060                PROVIDE (__fini_array_start, .)
 *(SORT(.fini_array.*))
 *(.fini_array)
                0x20000060                PROVIDE (__fini_array_end, .)
 *(.jcr*)
                0x20000060                . = ALIGN (0x4)
                0x20000060                __data_end__ = .
                0x20000060                _edata = __data_end__

.bss            0x20000060        0x0
                0x20000060                . = ALIGN (0x4)
                0x20000060                __bss_start__ = .
                0x20000060                _sbss = __bss_start__
 *(.bss*)
 *(COMMON)
                0x20000060                . = ALIGN (0x4)
                0x20000060                __bss_end__ = .
                0x20000060                _ebss = __bss_end__

.heap           0x20000060        0x0
                0x20000060                __end__ = .
                0x20000060                _end = __end__
                0x20000060                end = __end__
 *(.heap*)
                0x20000060                __HeapLimit = .

.co_stack       0x20000060      0x800 load address 0x08000cdc
                0x20000060                . = ALIGN (0x8)
 *(.co_stack .co_stack.*)
 .co_stack      0x20000060      0x800 ..\obj\startup_stm32f4xx.o
                0x20000060                pulStack
                0x20020000                __StackTop = (ORIGIN (ram) + 0x20000)
                0x2001f800                __StackLimit = (__StackTop - SIZEOF (.co_stack))
                0x20020000                PROVIDE (__stack, __StackTop)
                0x00000001                ASSERT ((__StackLimit >= __HeapLimit), region ram  overflowed with stack)
LOAD ..\obj\stm32f4xx_syscfg.o
LOAD ..\obj\startup_stm32f4xx.o
LOAD ..\obj\stm32_ub_led.o
LOAD ..\obj\main.o
LOAD ..\obj\stm32f4xx_rcc.o
LOAD ..\obj\stm32_ub_ext_int0.o
LOAD ..\obj\stm32f4xx_gpio.o
LOAD ..\obj\system_stm32f4xx.o
LOAD ..\obj\stm32f4xx_exti.o
LOAD ..\obj\misc.o
START GROUP
LOAD c:/program files (x86)/arm-none-eabi-gcc-4_6/bin/../lib/gcc/arm-none-eabi/4.6.2/armv7e-m\libgcc.a
LOAD c:/program files (x86)/arm-none-eabi-gcc-4_6/bin/../lib/gcc/arm-none-eabi/4.6.2/../../../../arm-none-eabi/lib/armv7e-m\libg.a
LOAD c:/program files (x86)/arm-none-eabi-gcc-4_6/bin/../lib/gcc/arm-none-eabi/4.6.2/../../../../arm-none-eabi/lib/armv7e-m\libc.a
END GROUP
OUTPUT(Demo_28.elf elf32-littlearm)

.debug_info     0x00000000     0x3265
 .debug_info    0x00000000      0x27a ..\obj\stm32f4xx_syscfg.o
 .debug_info    0x0000027a      0x135 ..\obj\startup_stm32f4xx.o
 .debug_info    0x000003af      0x450 ..\obj\stm32_ub_led.o
 .debug_info    0x000007ff       0xb1 ..\obj\main.o
 .debug_info    0x000008b0      0xd24 ..\obj\stm32f4xx_rcc.o
 .debug_info    0x000015d4      0x735 ..\obj\stm32_ub_ext_int0.o
 .debug_info    0x00001d09      0x639 ..\obj\stm32f4xx_gpio.o
 .debug_info    0x00002342      0x61d ..\obj\system_stm32f4xx.o
 .debug_info    0x0000295f      0x372 ..\obj\stm32f4xx_exti.o
 .debug_info    0x00002cd1      0x594 ..\obj\misc.o

.debug_abbrev   0x00000000      0xc0f
 .debug_abbrev  0x00000000      0x12a ..\obj\stm32f4xx_syscfg.o
 .debug_abbrev  0x0000012a       0xac ..\obj\startup_stm32f4xx.o
 .debug_abbrev  0x000001d6      0x13f ..\obj\stm32_ub_led.o
 .debug_abbrev  0x00000315       0x66 ..\obj\main.o
 .debug_abbrev  0x0000037b      0x1b7 ..\obj\stm32f4xx_rcc.o
 .debug_abbrev  0x00000532      0x15d ..\obj\stm32_ub_ext_int0.o
 .debug_abbrev  0x0000068f      0x182 ..\obj\stm32f4xx_gpio.o
 .debug_abbrev  0x00000811      0x140 ..\obj\system_stm32f4xx.o
 .debug_abbrev  0x00000951      0x198 ..\obj\stm32f4xx_exti.o
 .debug_abbrev  0x00000ae9      0x126 ..\obj\misc.o

.debug_loc      0x00000000     0x13a8
 .debug_loc     0x00000000      0x144 ..\obj\stm32f4xx_syscfg.o
 .debug_loc     0x00000144       0x64 ..\obj\startup_stm32f4xx.o
 .debug_loc     0x000001a8      0x118 ..\obj\stm32_ub_led.o
 .debug_loc     0x000002c0       0x2c ..\obj\main.o
 .debug_loc     0x000002ec      0x97c ..\obj\stm32f4xx_rcc.o
 .debug_loc     0x00000c68       0xc8 ..\obj\stm32_ub_ext_int0.o
 .debug_loc     0x00000d30      0x310 ..\obj\stm32f4xx_gpio.o
 .debug_loc     0x00001040       0x9c ..\obj\system_stm32f4xx.o
 .debug_loc     0x000010dc      0x1b4 ..\obj\stm32f4xx_exti.o
 .debug_loc     0x00001290      0x118 ..\obj\misc.o

.debug_aranges  0x00000000      0x3d0
 .debug_aranges
                0x00000000       0x48 ..\obj\stm32f4xx_syscfg.o
 .debug_aranges
                0x00000048       0x28 ..\obj\startup_stm32f4xx.o
 .debug_aranges
                0x00000070       0x40 ..\obj\stm32_ub_led.o
 .debug_aranges
                0x000000b0       0x20 ..\obj\main.o
 .debug_aranges
                0x000000d0      0x178 ..\obj\stm32f4xx_rcc.o
 .debug_aranges
                0x00000248       0x38 ..\obj\stm32_ub_ext_int0.o
 .debug_aranges
                0x00000280       0x88 ..\obj\stm32f4xx_gpio.o
 .debug_aranges
                0x00000308       0x30 ..\obj\system_stm32f4xx.o
 .debug_aranges
                0x00000338       0x58 ..\obj\stm32f4xx_exti.o
 .debug_aranges
                0x00000390       0x40 ..\obj\misc.o

.debug_ranges   0x00000000      0x330
 .debug_ranges  0x00000000       0x38 ..\obj\stm32f4xx_syscfg.o
 .debug_ranges  0x00000038       0x18 ..\obj\startup_stm32f4xx.o
 .debug_ranges  0x00000050       0x30 ..\obj\stm32_ub_led.o
 .debug_ranges  0x00000080       0x10 ..\obj\main.o
 .debug_ranges  0x00000090      0x168 ..\obj\stm32f4xx_rcc.o
 .debug_ranges  0x000001f8       0x28 ..\obj\stm32_ub_ext_int0.o
 .debug_ranges  0x00000220       0x78 ..\obj\stm32f4xx_gpio.o
 .debug_ranges  0x00000298       0x20 ..\obj\system_stm32f4xx.o
 .debug_ranges  0x000002b8       0x48 ..\obj\stm32f4xx_exti.o
 .debug_ranges  0x00000300       0x30 ..\obj\misc.o

.debug_line     0x00000000     0x1cd4
 .debug_line    0x00000000      0x257 ..\obj\stm32f4xx_syscfg.o
 .debug_line    0x00000257       0xc9 ..\obj\startup_stm32f4xx.o
 .debug_line    0x00000320      0x32a ..\obj\stm32_ub_led.o
 .debug_line    0x0000064a      0x170 ..\obj\main.o
 .debug_line    0x000007ba      0x603 ..\obj\stm32f4xx_rcc.o
 .debug_line    0x00000dbd      0x347 ..\obj\stm32_ub_ext_int0.o
 .debug_line    0x00001104      0x3a6 ..\obj\stm32f4xx_gpio.o
 .debug_line    0x000014aa      0x272 ..\obj\system_stm32f4xx.o
 .debug_line    0x0000171c      0x30c ..\obj\stm32f4xx_exti.o
 .debug_line    0x00001a28      0x2ac ..\obj\misc.o

.debug_str      0x00000000     0x1a41
 .debug_str     0x00000000      0x274 ..\obj\stm32f4xx_syscfg.o
                                0x2c1 (size before relaxing)
 .debug_str     0x00000274       0xd8 ..\obj\startup_stm32f4xx.o
                                0x140 (size before relaxing)
 .debug_str     0x0000034c      0x2d0 ..\obj\stm32_ub_led.o
                                0x3ca (size before relaxing)
 .debug_str     0x0000061c       0x5c ..\obj\main.o
                                0x13e (size before relaxing)
 .debug_str     0x00000678      0x6aa ..\obj\stm32f4xx_rcc.o
                                0x812 (size before relaxing)
 .debug_str     0x00000d22      0x76e ..\obj\stm32_ub_ext_int0.o
                                0xa57 (size before relaxing)
 .debug_str     0x00001490      0x1b3 ..\obj\stm32f4xx_gpio.o
                                0x465 (size before relaxing)
 .debug_str     0x00001643      0x140 ..\obj\system_stm32f4xx.o
                                0x36c (size before relaxing)
 .debug_str     0x00001783      0x135 ..\obj\stm32f4xx_exti.o
                                0x330 (size before relaxing)
 .debug_str     0x000018b8      0x189 ..\obj\misc.o
                                0x39b (size before relaxing)

.comment        0x00000000       0x70
 .comment       0x00000000       0x70 ..\obj\stm32f4xx_syscfg.o
                                 0x71 (size before relaxing)
 .comment       0x00000000       0x71 ..\obj\startup_stm32f4xx.o
 .comment       0x00000000       0x71 ..\obj\stm32_ub_led.o
 .comment       0x00000000       0x71 ..\obj\main.o
 .comment       0x00000000       0x71 ..\obj\stm32f4xx_rcc.o
 .comment       0x00000000       0x71 ..\obj\stm32_ub_ext_int0.o
 .comment       0x00000000       0x71 ..\obj\stm32f4xx_gpio.o
 .comment       0x00000000       0x71 ..\obj\system_stm32f4xx.o
 .comment       0x00000000       0x71 ..\obj\stm32f4xx_exti.o
 .comment       0x00000000       0x71 ..\obj\misc.o

.ARM.attributes
                0x00000000       0x33
 .ARM.attributes
                0x00000000       0x33 ..\obj\stm32f4xx_syscfg.o
 .ARM.attributes
                0x00000033       0x33 ..\obj\startup_stm32f4xx.o
 .ARM.attributes
                0x00000066       0x33 ..\obj\stm32_ub_led.o
 .ARM.attributes
                0x00000099       0x33 ..\obj\main.o
 .ARM.attributes
                0x000000cc       0x33 ..\obj\stm32f4xx_rcc.o
 .ARM.attributes
                0x000000ff       0x33 ..\obj\stm32_ub_ext_int0.o
 .ARM.attributes
                0x00000132       0x33 ..\obj\stm32f4xx_gpio.o
 .ARM.attributes
                0x00000165       0x33 ..\obj\system_stm32f4xx.o
 .ARM.attributes
                0x00000198       0x33 ..\obj\stm32f4xx_exti.o
 .ARM.attributes
                0x000001cb       0x33 ..\obj\misc.o

.debug_frame    0x00000000      0xabc
 .debug_frame   0x00000000       0xbc ..\obj\stm32f4xx_syscfg.o
 .debug_frame   0x000000bc       0x48 ..\obj\startup_stm32f4xx.o
 .debug_frame   0x00000104       0xa8 ..\obj\stm32_ub_led.o
 .debug_frame   0x000001ac       0x2c ..\obj\main.o
 .debug_frame   0x000001d8      0x4d8 ..\obj\stm32f4xx_rcc.o
 .debug_frame   0x000006b0       0x84 ..\obj\stm32_ub_ext_int0.o
 .debug_frame   0x00000734      0x19c ..\obj\stm32f4xx_gpio.o
 .debug_frame   0x000008d0       0x64 ..\obj\system_stm32f4xx.o
 .debug_frame   0x00000934       0xec ..\obj\stm32f4xx_exti.o
 .debug_frame   0x00000a20       0x9c ..\obj\misc.o
